target datalayout = "e-m:e-p270:32:32-p271:32:32-p272:64:64-i64:64-i128:128-f80:128-n8:16:32:64-S128"
target triple = "x86_64-pc-linux-gnu"

@s_Truths6Neg = internal global [6 x i64] [i64 6148914691236517205, i64 3689348814741910323, i64 1085102592571150095, i64 71777214294589695, i64 281470681808895, i64 4294967295], align 16

; Function Attrs: inlinehint nounwind uwtable
define internal i32 @Abc_Truth6WordNum(i32 noundef %0) #2 {
  %2 = alloca i32, align 4
  store i32 %0, ptr %2, align 4, !tbaa !10
  %3 = load i32, ptr %2, align 4, !tbaa !10
  %4 = icmp sle i32 %3, 6
  br i1 %4, label %5, label %6

5:                                                ; preds = %1
  br label %10

6:                                                ; preds = %1
  %7 = load i32, ptr %2, align 4, !tbaa !10
  %8 = sub nsw i32 %7, 6
  %9 = shl i32 1, %8
  br label %10

10:                                               ; preds = %6, %5
  %11 = phi i32 [ 1, %5 ], [ %9, %6 ]
  ret i32 %11
}

; Function Attrs: inlinehint nounwind uwtable
define internal i32 @Abc_TtWordNum(i32 noundef %0) #2 {
  %2 = alloca i32, align 4
  store i32 %0, ptr %2, align 4, !tbaa !10
  %3 = load i32, ptr %2, align 4, !tbaa !10
  %4 = icmp sle i32 %3, 6
  br i1 %4, label %5, label %6

5:                                                ; preds = %1
  br label %10

6:                                                ; preds = %1
  %7 = load i32, ptr %2, align 4, !tbaa !10
  %8 = sub nsw i32 %7, 6
  %9 = shl i32 1, %8
  br label %10

10:                                               ; preds = %6, %5
  %11 = phi i32 [ 1, %5 ], [ %9, %6 ]
  ret i32 %11
}

; Function Attrs: inlinehint nounwind uwtable
define internal i32 @Abc_Tt6HasVar(i64 noundef %0, i32 noundef %1) #2 {
  %3 = alloca i64, align 8
  %4 = alloca i32, align 4
  store i64 %0, ptr %3, align 8, !tbaa !3
  store i32 %1, ptr %4, align 4, !tbaa !10
  %5 = load i64, ptr %3, align 8, !tbaa !3
  %6 = load i32, ptr %4, align 4, !tbaa !10
  %7 = shl i32 1, %6
  %8 = zext i32 %7 to i64
  %9 = lshr i64 %5, %8
  %10 = load i32, ptr %4, align 4, !tbaa !10
  %11 = sext i32 %10 to i64
  %12 = getelementptr inbounds [6 x i64], ptr @s_Truths6Neg, i64 0, i64 %11
  %13 = load i64, ptr %12, align 8, !tbaa !3
  %14 = and i64 %9, %13
  %15 = load i64, ptr %3, align 8, !tbaa !3
  %16 = load i32, ptr %4, align 4, !tbaa !10
  %17 = sext i32 %16 to i64
  %18 = getelementptr inbounds [6 x i64], ptr @s_Truths6Neg, i64 0, i64 %17
  %19 = load i64, ptr %18, align 8, !tbaa !3
  %20 = and i64 %15, %19
  %21 = icmp ne i64 %14, %20
  %22 = zext i1 %21 to i32
  ret i32 %22
}

; Function Attrs: inlinehint nounwind uwtable
define internal void @Abc_TtStretch6(ptr noundef %0, i32 noundef %1, i32 noundef %2) #2 {
  %4 = alloca ptr, align 8
  %5 = alloca i32, align 4
  %6 = alloca i32, align 4
  %7 = alloca i32, align 4
  %8 = alloca i32, align 4
  %9 = alloca i32, align 4
  %10 = alloca i32, align 4
  %11 = alloca i32, align 4
  store ptr %0, ptr %4, align 8, !tbaa !7
  store i32 %1, ptr %5, align 4, !tbaa !10
  store i32 %2, ptr %6, align 4, !tbaa !10
  call void @llvm.lifetime.start.p0(i64 4, ptr %7) #9
  call void @llvm.lifetime.start.p0(i64 4, ptr %8) #9
  call void @llvm.lifetime.start.p0(i64 4, ptr %9) #9
  call void @llvm.lifetime.start.p0(i64 4, ptr %10) #9
  %12 = load i32, ptr %5, align 4, !tbaa !10
  %13 = load i32, ptr %6, align 4, !tbaa !10
  %14 = icmp eq i32 %12, %13
  br i1 %14, label %15, label %16

15:                                               ; preds = %3
  store i32 1, ptr %11, align 4
  br label %56

16:                                               ; preds = %3
  %17 = load i32, ptr %5, align 4, !tbaa !10
  %18 = call i32 @Abc_Truth6WordNum(i32 noundef %17)
  store i32 %18, ptr %9, align 4, !tbaa !10
  %19 = load i32, ptr %6, align 4, !tbaa !10
  %20 = call i32 @Abc_Truth6WordNum(i32 noundef %19)
  store i32 %20, ptr %10, align 4, !tbaa !10
  %21 = load i32, ptr %9, align 4, !tbaa !10
  %22 = load i32, ptr %10, align 4, !tbaa !10
  %23 = icmp eq i32 %21, %22
  br i1 %23, label %24, label %25

24:                                               ; preds = %16
  store i32 1, ptr %11, align 4
  br label %56

25:                                               ; preds = %16
  store i32 0, ptr %7, align 4, !tbaa !10
  br label %26

26:                                               ; preds = %51, %25
  %27 = load i32, ptr %7, align 4, !tbaa !10
  %28 = load i32, ptr %10, align 4, !tbaa !10
  %29 = icmp slt i32 %27, %28
  br i1 %29, label %30, label %55

30:                                               ; preds = %26
  store i32 0, ptr %8, align 4, !tbaa !10
  br label %31

31:                                               ; preds = %47, %30
  %32 = load i32, ptr %8, align 4, !tbaa !10
  %33 = load i32, ptr %9, align 4, !tbaa !10
  %34 = icmp slt i32 %32, %33
  br i1 %34, label %35, label %50

35:                                               ; preds = %31
  %36 = load ptr, ptr %4, align 8, !tbaa !7
  %37 = load i32, ptr %8, align 4, !tbaa !10
  %38 = sext i32 %37 to i64
  %39 = getelementptr inbounds i64, ptr %36, i64 %38
  %40 = load i64, ptr %39, align 8, !tbaa !3
  %41 = load ptr, ptr %4, align 8, !tbaa !7
  %42 = load i32, ptr %7, align 4, !tbaa !10
  %43 = load i32, ptr %8, align 4, !tbaa !10
  %44 = add nsw i32 %42, %43
  %45 = sext i32 %44 to i64
  %46 = getelementptr inbounds i64, ptr %41, i64 %45
  store i64 %40, ptr %46, align 8, !tbaa !3
  br label %47

47:                                               ; preds = %35
  %48 = load i32, ptr %8, align 4, !tbaa !10
  %49 = add nsw i32 %48, 1
  store i32 %49, ptr %8, align 4, !tbaa !10
  br label %31, !llvm.loop !23

50:                                               ; preds = %31
  br label %51

51:                                               ; preds = %50
  %52 = load i32, ptr %9, align 4, !tbaa !10
  %53 = load i32, ptr %7, align 4, !tbaa !10
  %54 = add nsw i32 %53, %52
  store i32 %54, ptr %7, align 4, !tbaa !10
  br label %26, !llvm.loop !24

55:                                               ; preds = %26
  store i32 0, ptr %11, align 4
  br label %56

56:                                               ; preds = %55, %24, %15
  call void @llvm.lifetime.end.p0(i64 4, ptr %10) #9
  call void @llvm.lifetime.end.p0(i64 4, ptr %9) #9
  call void @llvm.lifetime.end.p0(i64 4, ptr %8) #9
  call void @llvm.lifetime.end.p0(i64 4, ptr %7) #9
  %57 = load i32, ptr %11, align 4
  switch i32 %57, label %59 [
    i32 0, label %58
    i32 1, label %58
  ]

58:                                               ; preds = %56, %56
  ret void

59:                                               ; preds = %56
  unreachable
}

; Function Attrs: inlinehint nounwind uwtable
define internal i32 @Abc_TtHasVar(ptr noundef %0, i32 noundef %1, i32 noundef %2) #2 {
  %4 = alloca i32, align 4
  %5 = alloca ptr, align 8
  %6 = alloca i32, align 4
  %7 = alloca i32, align 4
  %8 = alloca i32, align 4
  %9 = alloca i32, align 4
  %10 = alloca i32, align 4
  %11 = alloca i32, align 4
  %12 = alloca i32, align 4
  %13 = alloca i32, align 4
  %14 = alloca ptr, align 8
  store ptr %0, ptr %5, align 8, !tbaa !7
  store i32 %1, ptr %6, align 4, !tbaa !10
  store i32 %2, ptr %7, align 4, !tbaa !10
  %15 = load i32, ptr %6, align 4, !tbaa !10
  %16 = icmp sle i32 %15, 6
  br i1 %16, label %17, label %23

17:                                               ; preds = %3
  %18 = load ptr, ptr %5, align 8, !tbaa !7
  %19 = getelementptr inbounds i64, ptr %18, i64 0
  %20 = load i64, ptr %19, align 8, !tbaa !3
  %21 = load i32, ptr %7, align 4, !tbaa !10
  %22 = call i32 @Abc_Tt6HasVar(i64 noundef %20, i32 noundef %21)
  store i32 %22, ptr %4, align 4
  br label %113

23:                                               ; preds = %3
  %24 = load i32, ptr %7, align 4, !tbaa !10
  %25 = icmp slt i32 %24, 6
  br i1 %25, label %26, label %67

26:                                               ; preds = %23
  call void @llvm.lifetime.start.p0(i64 4, ptr %8) #9
  call void @llvm.lifetime.start.p0(i64 4, ptr %9) #9
  %27 = load i32, ptr %7, align 4, !tbaa !10
  %28 = shl i32 1, %27
  store i32 %28, ptr %9, align 4, !tbaa !10
  call void @llvm.lifetime.start.p0(i64 4, ptr %10) #9
  %29 = load i32, ptr %6, align 4, !tbaa !10
  %30 = call i32 @Abc_TtWordNum(i32 noundef %29)
  store i32 %30, ptr %10, align 4, !tbaa !10
  store i32 0, ptr %8, align 4, !tbaa !10
  br label %31

31:                                               ; preds = %62, %26
  %32 = load i32, ptr %8, align 4, !tbaa !10
  %33 = load i32, ptr %10, align 4, !tbaa !10
  %34 = icmp slt i32 %32, %33
  br i1 %34, label %35, label %65

35:                                               ; preds = %31
  %36 = load ptr, ptr %5, align 8, !tbaa !7
  %37 = load i32, ptr %8, align 4, !tbaa !10
  %38 = sext i32 %37 to i64
  %39 = getelementptr inbounds i64, ptr %36, i64 %38
  %40 = load i64, ptr %39, align 8, !tbaa !3
  %41 = load i32, ptr %9, align 4, !tbaa !10
  %42 = zext i32 %41 to i64
  %43 = lshr i64 %40, %42
  %44 = load i32, ptr %7, align 4, !tbaa !10
  %45 = sext i32 %44 to i64
  %46 = getelementptr inbounds [6 x i64], ptr @s_Truths6Neg, i64 0, i64 %45
  %47 = load i64, ptr %46, align 8, !tbaa !3
  %48 = and i64 %43, %47
  %49 = load ptr, ptr %5, align 8, !tbaa !7
  %50 = load i32, ptr %8, align 4, !tbaa !10
  %51 = sext i32 %50 to i64
  %52 = getelementptr inbounds i64, ptr %49, i64 %51
  %53 = load i64, ptr %52, align 8, !tbaa !3
  %54 = load i32, ptr %7, align 4, !tbaa !10
  %55 = sext i32 %54 to i64
  %56 = getelementptr inbounds [6 x i64], ptr @s_Truths6Neg, i64 0, i64 %55
  %57 = load i64, ptr %56, align 8, !tbaa !3
  %58 = and i64 %53, %57
  %59 = icmp ne i64 %48, %58
  br i1 %59, label %60, label %61

60:                                               ; preds = %35
  store i32 1, ptr %4, align 4
  store i32 1, ptr %11, align 4
  br label %66

61:                                               ; preds = %35
  br label %62

62:                                               ; preds = %61
  %63 = load i32, ptr %8, align 4, !tbaa !10
  %64 = add nsw i32 %63, 1
  store i32 %64, ptr %8, align 4, !tbaa !10
  br label %31, !llvm.loop !20

65:                                               ; preds = %31
  store i32 0, ptr %4, align 4
  store i32 1, ptr %11, align 4
  br label %66

66:                                               ; preds = %65, %60
  call void @llvm.lifetime.end.p0(i64 4, ptr %10) #9
  call void @llvm.lifetime.end.p0(i64 4, ptr %9) #9
  call void @llvm.lifetime.end.p0(i64 4, ptr %8) #9
  br label %113

67:                                               ; preds = %23
  call void @llvm.lifetime.start.p0(i64 4, ptr %12) #9
  call void @llvm.lifetime.start.p0(i64 4, ptr %13) #9
  %68 = load i32, ptr %7, align 4, !tbaa !10
  %69 = sub nsw i32 %68, 6
  %70 = shl i32 1, %69
  store i32 %70, ptr %13, align 4, !tbaa !10
  call void @llvm.lifetime.start.p0(i64 8, ptr %14) #9
  %71 = load ptr, ptr %5, align 8, !tbaa !7
  %72 = load i32, ptr %6, align 4, !tbaa !10
  %73 = call i32 @Abc_TtWordNum(i32 noundef %72)
  %74 = sext i32 %73 to i64
  %75 = getelementptr inbounds i64, ptr %71, i64 %74
  store ptr %75, ptr %14, align 8, !tbaa !7
  br label %76

76:                                               ; preds = %105, %67
  %77 = load ptr, ptr %5, align 8, !tbaa !7
  %78 = load ptr, ptr %14, align 8, !tbaa !7
  %79 = icmp ult ptr %77, %78
  br i1 %79, label %80, label %111

80:                                               ; preds = %76
  store i32 0, ptr %12, align 4, !tbaa !10
  br label %81

81:                                               ; preds = %101, %80
  %82 = load i32, ptr %12, align 4, !tbaa !10
  %83 = load i32, ptr %13, align 4, !tbaa !10
  %84 = icmp slt i32 %82, %83
  br i1 %84, label %85, label %104

85:                                               ; preds = %81
  %86 = load ptr, ptr %5, align 8, !tbaa !7
  %87 = load i32, ptr %12, align 4, !tbaa !10
  %88 = sext i32 %87 to i64
  %89 = getelementptr inbounds i64, ptr %86, i64 %88
  %90 = load i64, ptr %89, align 8, !tbaa !3
  %91 = load ptr, ptr %5, align 8, !tbaa !7
  %92 = load i32, ptr %13, align 4, !tbaa !10
  %93 = load i32, ptr %12, align 4, !tbaa !10
  %94 = add nsw i32 %92, %93
  %95 = sext i32 %94 to i64
  %96 = getelementptr inbounds i64, ptr %91, i64 %95
  %97 = load i64, ptr %96, align 8, !tbaa !3
  %98 = icmp ne i64 %90, %97
  br i1 %98, label %99, label %100

99:                                               ; preds = %85
  store i32 1, ptr %4, align 4
  store i32 1, ptr %11, align 4
  br label %112

100:                                              ; preds = %85
  br label %101

101:                                              ; preds = %100
  %102 = load i32, ptr %12, align 4, !tbaa !10
  %103 = add nsw i32 %102, 1
  store i32 %103, ptr %12, align 4, !tbaa !10
  br label %81, !llvm.loop !21

104:                                              ; preds = %81
  br label %105

105:                                              ; preds = %104
  %106 = load i32, ptr %13, align 4, !tbaa !10
  %107 = mul nsw i32 2, %106
  %108 = load ptr, ptr %5, align 8, !tbaa !7
  %109 = sext i32 %107 to i64
  %110 = getelementptr inbounds i64, ptr %108, i64 %109
  store ptr %110, ptr %5, align 8, !tbaa !7
  br label %76, !llvm.loop !22

111:                                              ; preds = %76
  store i32 0, ptr %4, align 4
  store i32 1, ptr %11, align 4
  br label %112

112:                                              ; preds = %111, %99
  call void @llvm.lifetime.end.p0(i64 8, ptr %14) #9
  call void @llvm.lifetime.end.p0(i64 4, ptr %13) #9
  call void @llvm.lifetime.end.p0(i64 4, ptr %12) #9
  br label %113

113:                                              ; preds = %112, %66, %17
  %114 = load i32, ptr %4, align 4
  ret i32 %114
}

; Function Attrs: nounwind uwtable
define i64 @Abc_IsopCheck(ptr noundef %0, ptr noundef %1, ptr noundef %2, i32 noundef %3, i64 noundef %4, ptr noundef %5) #0 {
  %7 = alloca i64, align 8
  %8 = alloca ptr, align 8
  %9 = alloca ptr, align 8
  %10 = alloca ptr, align 8
  %11 = alloca i32, align 4
  %12 = alloca i64, align 8
  %13 = alloca ptr, align 8
  %14 = alloca i32, align 4
  %15 = alloca i64, align 8
  %16 = alloca i32, align 4
  store ptr %0, ptr %8, align 8, !tbaa !7
  store ptr %1, ptr %9, align 8, !tbaa !7
  store ptr %2, ptr %10, align 8, !tbaa !7
  store i32 %3, ptr %11, align 4, !tbaa !10
  store i64 %4, ptr %12, align 8, !tbaa !3
  store ptr %5, ptr %13, align 8, !tbaa !12
  call void @llvm.lifetime.start.p0(i64 4, ptr %14) #9
  call void @llvm.lifetime.start.p0(i64 8, ptr %15) #9
  %17 = load i32, ptr %11, align 4, !tbaa !10
  %18 = icmp sle i32 %17, 6
  br i1 %18, label %19, label %29

19:                                               ; preds = %6
  %20 = load ptr, ptr %8, align 8, !tbaa !7
  %21 = load i64, ptr %20, align 8, !tbaa !3
  %22 = load ptr, ptr %9, align 8, !tbaa !7
  %23 = load i64, ptr %22, align 8, !tbaa !3
  %24 = load ptr, ptr %10, align 8, !tbaa !7
  %25 = load i32, ptr %11, align 4, !tbaa !10
  %26 = load i64, ptr %12, align 8, !tbaa !3
  %27 = load ptr, ptr %13, align 8, !tbaa !12
  %28 = call i64 @Abc_Isop6Cover(i64 noundef %21, i64 noundef %23, ptr noundef %24, i32 noundef %25, i64 noundef %26, ptr noundef %27)
  store i64 %28, ptr %7, align 8
  store i32 1, ptr %16, align 4
  br label %82

29:                                               ; preds = %6
  %30 = load i32, ptr %11, align 4, !tbaa !10
  store i32 %30, ptr %14, align 4, !tbaa !10
  br label %31

31:                                               ; preds = %50, %29
  %32 = load i32, ptr %14, align 4, !tbaa !10
  %33 = icmp sgt i32 %32, 6
  br i1 %33, label %34, label %53

34:                                               ; preds = %31
  %35 = load ptr, ptr %8, align 8, !tbaa !7
  %36 = load i32, ptr %11, align 4, !tbaa !10
  %37 = load i32, ptr %14, align 4, !tbaa !10
  %38 = sub nsw i32 %37, 1
  %39 = call i32 @Abc_TtHasVar(ptr noundef %35, i32 noundef %36, i32 noundef %38)
  %40 = icmp ne i32 %39, 0
  br i1 %40, label %48, label %41

41:                                               ; preds = %34
  %42 = load ptr, ptr %9, align 8, !tbaa !7
  %43 = load i32, ptr %11, align 4, !tbaa !10
  %44 = load i32, ptr %14, align 4, !tbaa !10
  %45 = sub nsw i32 %44, 1
  %46 = call i32 @Abc_TtHasVar(ptr noundef %42, i32 noundef %43, i32 noundef %45)
  %47 = icmp ne i32 %46, 0
  br i1 %47, label %48, label %49

48:                                               ; preds = %41, %34
  br label %53

49:                                               ; preds = %41
  br label %50

50:                                               ; preds = %49
  %51 = load i32, ptr %14, align 4, !tbaa !10
  %52 = add nsw i32 %51, -1
  store i32 %52, ptr %14, align 4, !tbaa !10
  br label %31, !llvm.loop !18

53:                                               ; preds = %48, %31
  %54 = load i32, ptr %14, align 4, !tbaa !10
  %55 = icmp eq i32 %54, 6
  br i1 %55, label %56, label %66

56:                                               ; preds = %53
  %57 = load ptr, ptr %8, align 8, !tbaa !7
  %58 = load i64, ptr %57, align 8, !tbaa !3
  %59 = load ptr, ptr %9, align 8, !tbaa !7
  %60 = load i64, ptr %59, align 8, !tbaa !3
  %61 = load ptr, ptr %10, align 8, !tbaa !7
  %62 = load i32, ptr %14, align 4, !tbaa !10
  %63 = load i64, ptr %12, align 8, !tbaa !3
  %64 = load ptr, ptr %13, align 8, !tbaa !12
  %65 = call i64 @Abc_Isop6Cover(i64 noundef %58, i64 noundef %60, ptr noundef %61, i32 noundef %62, i64 noundef %63, ptr noundef %64)
  store i64 %65, ptr %15, align 8, !tbaa !3
  br label %77

66:                                               ; preds = %53
  %67 = load i32, ptr %14, align 4, !tbaa !10
  %68 = sext i32 %67 to i64
  %69 = getelementptr inbounds [17 x ptr], ptr @s_pFuncIsopCover, i64 0, i64 %68
  %70 = load ptr, ptr %69, align 8, !tbaa !19
  %71 = load ptr, ptr %8, align 8, !tbaa !7
  %72 = load ptr, ptr %9, align 8, !tbaa !7
  %73 = load ptr, ptr %10, align 8, !tbaa !7
  %74 = load i64, ptr %12, align 8, !tbaa !3
  %75 = load ptr, ptr %13, align 8, !tbaa !12
  %76 = call i64 %70(ptr noundef %71, ptr noundef %72, ptr noundef %73, i64 noundef %74, ptr noundef %75)
  store i64 %76, ptr %15, align 8, !tbaa !3
  br label %77

77:                                               ; preds = %66, %56
  %78 = load ptr, ptr %10, align 8, !tbaa !7
  %79 = load i32, ptr %14, align 4, !tbaa !10
  %80 = load i32, ptr %11, align 4, !tbaa !10
  call void @Abc_TtStretch6(ptr noundef %78, i32 noundef %79, i32 noundef %80)
  %81 = load i64, ptr %15, align 8, !tbaa !3
  store i64 %81, ptr %7, align 8
  store i32 1, ptr %16, align 4
  br label %82

82:                                               ; preds = %77, %19
  call void @llvm.lifetime.end.p0(i64 8, ptr %15) #9
  call void @llvm.lifetime.end.p0(i64 4, ptr %14) #9
  %83 = load i64, ptr %7, align 8
  ret i64 %83
}