; Function Attrs: nounwind uwtable
define i64 @Abc_IsopCheck(ptr noundef %0, ptr noundef %1, ptr noundef %2, i32 noundef %3, i64 noundef %4, ptr noundef %5) local_unnamed_addr #2 {
  %7 = icmp slt i32 %3, 7
  br i1 %7, label %Abc_TtStretch6.exit.sink.split, label %.preheader

.preheader:                                       ; preds = %6
  %8 = add nsw i32 %3, -6
  %9 = shl nuw i32 1, %8
  %10 = sext i32 %9 to i64
  %11 = getelementptr inbounds i64, ptr %0, i64 %10
  %.not.i = icmp eq i32 %8, 31
  %12 = getelementptr inbounds i64, ptr %1, i64 %10
  br i1 %.not.i, label %Abc_TtStretch6.exit.sink.split, label %.preheader.lr.ph.i

.preheader.lr.ph.i:                               ; preds = %.preheader, %.thread
  %.03388 = phi i32 [ %13, %.thread ], [ %3, %.preheader ]
  %13 = add nsw i32 %.03388, -1
  %14 = add nsw i32 %.03388, -7
  %.not42.i = icmp eq i32 %14, 31
  %15 = shl i32 2, %14
  %16 = sext i32 %15 to i64
  br i1 %.not42.i, label %.thread, label %.preheader.us.preheader.i

.preheader.us.preheader.i:                        ; preds = %.preheader.lr.ph.i
  %17 = shl nuw i32 1, %14
  %18 = sext i32 %17 to i64
  %smax.i = tail call i32 @llvm.smax.i32(i32 %17, i32 1)
  %wide.trip.count.i = zext nneg i32 %smax.i to i64
  br label %.preheader.us.i

.preheader.us.i:                                  ; preds = %._crit_edge.us.i, %.preheader.us.preheader.i
  %.03141.us.i = phi ptr [ %24, %._crit_edge.us.i ], [ %0, %.preheader.us.preheader.i ]
  %invariant.gep.i = getelementptr i64, ptr %.03141.us.i, i64 %18
  br label %20

19:                                               ; preds = %20
  %indvars.iv.next.i = add nuw nsw i64 %indvars.iv.i, 1
  %exitcond.not.i = icmp eq i64 %indvars.iv.next.i, %wide.trip.count.i
  br i1 %exitcond.not.i, label %._crit_edge.us.i, label %20, !llvm.loop !13

20:                                               ; preds = %19, %.preheader.us.i
  %indvars.iv.i = phi i64 [ 0, %.preheader.us.i ], [ %indvars.iv.next.i, %19 ]
  %21 = getelementptr inbounds nuw i64, ptr %.03141.us.i, i64 %indvars.iv.i
  %22 = load i64, ptr %21, align 8, !tbaa !3
  %gep.i = getelementptr i64, ptr %invariant.gep.i, i64 %indvars.iv.i
  %23 = load i64, ptr %gep.i, align 8, !tbaa !3
  %.not.us.i = icmp eq i64 %22, %23
  br i1 %.not.us.i, label %19, label %Abc_TtHasVar.exit

._crit_edge.us.i:                                 ; preds = %19
  %24 = getelementptr inbounds i64, ptr %.03141.us.i, i64 %16
  %25 = icmp ult ptr %24, %11
  br i1 %25, label %.preheader.us.i, label %.preheader.us.i45, !llvm.loop !14

.preheader.us.i45:                                ; preds = %._crit_edge.us.i, %._crit_edge.us.i54
  %.03141.us.i46 = phi ptr [ %31, %._crit_edge.us.i54 ], [ %1, %._crit_edge.us.i ]
  %invariant.gep.i47 = getelementptr i64, ptr %.03141.us.i46, i64 %18
  br label %27

26:                                               ; preds = %27
  %indvars.iv.next.i52 = add nuw nsw i64 %indvars.iv.i48, 1
  %exitcond.not.i53 = icmp eq i64 %indvars.iv.next.i52, %wide.trip.count.i
  br i1 %exitcond.not.i53, label %._crit_edge.us.i54, label %27, !llvm.loop !13

27:                                               ; preds = %26, %.preheader.us.i45
  %indvars.iv.i48 = phi i64 [ 0, %.preheader.us.i45 ], [ %indvars.iv.next.i52, %26 ]
  %28 = getelementptr inbounds nuw i64, ptr %.03141.us.i46, i64 %indvars.iv.i48
  %29 = load i64, ptr %28, align 8, !tbaa !3
  %gep.i49 = getelementptr i64, ptr %invariant.gep.i47, i64 %indvars.iv.i48
  %30 = load i64, ptr %gep.i49, align 8, !tbaa !3
  %.not.us.i50 = icmp eq i64 %29, %30
  br i1 %.not.us.i50, label %26, label %Abc_TtHasVar.exit

._crit_edge.us.i54:                               ; preds = %26
  %31 = getelementptr inbounds i64, ptr %.03141.us.i46, i64 %16
  %32 = icmp ult ptr %31, %12
  br i1 %32, label %.preheader.us.i45, label %.thread, !llvm.loop !14

.thread:                                          ; preds = %._crit_edge.us.i54, %.preheader.lr.ph.i
  %33 = icmp sgt i32 %.03388, 7
  br i1 %33, label %.preheader.lr.ph.i, label %.split, !llvm.loop !15

Abc_TtHasVar.exit:                                ; preds = %20, %27
  %34 = icmp eq i32 %.03388, 6
  br i1 %34, label %.split, label %.split36

.split:                                           ; preds = %.thread, %Abc_TtHasVar.exit
  %35 = load i64, ptr %0, align 8, !tbaa !3
  %36 = load i64, ptr %1, align 8, !tbaa !3
  %37 = tail call i64 @Abc_Isop6Cover(i64 noundef %35, i64 noundef %36, ptr noundef %2, i32 noundef 6, i64 noundef %4, ptr noundef %5)
  switch i32 %3, label %.preheader.us.i57.preheader [
    i32 37, label %Abc_TtStretch6.exit
    i32 6, label %Abc_TtStretch6.exit
  ]

.preheader.us.i57.preheader:                      ; preds = %.split
  %smax = tail call i32 @llvm.smax.i32(i32 %9, i32 1)
  %wide.trip.count = zext nneg i32 %smax to i64
  %.pre = load i64, ptr %2, align 8, !tbaa !3
  br label %.preheader.us.i57

.preheader.us.i57:                                ; preds = %.preheader.us.i57.preheader, %.preheader.us.i57
  %indvars.iv27.i = phi i64 [ %indvars.iv.next28.i, %.preheader.us.i57 ], [ 0, %.preheader.us.i57.preheader ]
  %invariant.gep.i58 = getelementptr inbounds nuw i64, ptr %2, i64 %indvars.iv27.i
  store i64 %.pre, ptr %invariant.gep.i58, align 8, !tbaa !3
  %indvars.iv.next28.i = add nuw nsw i64 %indvars.iv27.i, 1
  %exitcond.not = icmp eq i64 %indvars.iv.next28.i, %wide.trip.count
  br i1 %exitcond.not, label %Abc_TtStretch6.exit, label %.preheader.us.i57, !llvm.loop !16

.split36:                                         ; preds = %Abc_TtHasVar.exit
  %38 = zext nneg i32 %.03388 to i64
  %39 = getelementptr inbounds nuw [17 x ptr], ptr @s_pFuncIsopCover, i64 0, i64 %38
  %40 = load ptr, ptr %39, align 8, !tbaa !17
  %41 = tail call i64 %40(ptr noundef %0, ptr noundef %1, ptr noundef %2, i64 noundef %4, ptr noundef %5) #20
  %42 = icmp eq i32 %.03388, %3
  br i1 %42, label %Abc_TtStretch6.exit, label %43

43:                                               ; preds = %.split36
  %44 = icmp samesign ult i32 %.03388, 7
  %45 = add nsw i32 %.03388, -6
  %46 = shl nuw i32 1, %45
  %47 = select i1 %44, i32 1, i32 %46
  %48 = icmp ne i32 %47, %9
  %49 = icmp sgt i32 %47, 0
  %or.cond30.i = and i1 %49, %48
  br i1 %or.cond30.i, label %.preheader.us.preheader.i65, label %Abc_TtStretch6.exit

.preheader.us.preheader.i65:                      ; preds = %43
  %50 = zext nneg i32 %47 to i64
  br label %.preheader.us.i66

.preheader.us.i66:                                ; preds = %._crit_edge.us.i73, %.preheader.us.preheader.i65
  %indvars.iv27.i67 = phi i64 [ 0, %.preheader.us.preheader.i65 ], [ %indvars.iv.next28.i74, %._crit_edge.us.i73 ]
  %invariant.gep.i68 = getelementptr inbounds nuw i64, ptr %2, i64 %indvars.iv27.i67
  br label %51

51:                                               ; preds = %51, %.preheader.us.i66
  %indvars.iv.i69 = phi i64 [ 0, %.preheader.us.i66 ], [ %indvars.iv.next.i71, %51 ]
  %52 = getelementptr inbounds nuw i64, ptr %2, i64 %indvars.iv.i69
  %53 = load i64, ptr %52, align 8, !tbaa !3
  %gep.i70 = getelementptr inbounds nuw i64, ptr %invariant.gep.i68, i64 %indvars.iv.i69
  store i64 %53, ptr %gep.i70, align 8, !tbaa !3
  %indvars.iv.next.i71 = add nuw nsw i64 %indvars.iv.i69, 1
  %exitcond.not.i72 = icmp eq i64 %indvars.iv.next.i71, %50
  br i1 %exitcond.not.i72, label %._crit_edge.us.i73, label %51, !llvm.loop !19

._crit_edge.us.i73:                               ; preds = %51
  %indvars.iv.next28.i74 = add nuw nsw i64 %indvars.iv27.i67, %50
  %54 = trunc nuw i64 %indvars.iv.next28.i74 to i32
  %55 = icmp sgt i32 %9, %54
  br i1 %55, label %.preheader.us.i66, label %Abc_TtStretch6.exit, !llvm.loop !16

Abc_TtStretch6.exit.sink.split:                   ; preds = %6, %.preheader
  %.sink105 = phi i32 [ 6, %.preheader ], [ %3, %6 ]
  %56 = load i64, ptr %0, align 8, !tbaa !3
  %57 = load i64, ptr %1, align 8, !tbaa !3
  %58 = tail call i64 @Abc_Isop6Cover(i64 noundef %56, i64 noundef %57, ptr noundef %2, i32 noundef %.sink105, i64 noundef %4, ptr noundef %5)
  br label %Abc_TtStretch6.exit

Abc_TtStretch6.exit:                              ; preds = %._crit_edge.us.i73, %.preheader.us.i57, %Abc_TtStretch6.exit.sink.split, %.split, %.split, %43, %.split36
  %.034 = phi i64 [ %37, %.split ], [ %41, %.split36 ], [ %41, %43 ], [ %37, %.split ], [ %58, %Abc_TtStretch6.exit.sink.split ], [ %37, %.preheader.us.i57 ], [ %41, %._crit_edge.us.i73 ]
  ret i64 %.034
}